; Function Attrs: nounwind uwtable
define dso_local range(i32 -1, 1) i32 @strbuf_getdelim_strip_crlf(ptr noundef %0, ptr noundef %1, i32 noundef %2) local_unnamed_addr #3 {
  %4 = tail call i32 @feof(ptr noundef %1) #25
  %.not.i = icmp eq i32 %4, 0
  br i1 %.not.i, label %5, label %strbuf_setlen.exit17

5:                                                ; preds = %3
  %6 = getelementptr inbounds nuw i8, ptr %0, i64 8
  store i64 0, ptr %6, align 8, !tbaa !16
  %7 = getelementptr inbounds nuw i8, ptr %0, i64 16
  %8 = load ptr, ptr %7, align 8, !tbaa !12
  %.not9.i.i = icmp eq ptr %8, @strbuf_slopbuf
  br i1 %.not9.i.i, label %strbuf_setlen.exit.i, label %9

9:                                                ; preds = %5
  store i8 0, ptr %8, align 1, !tbaa !4
  br label %strbuf_setlen.exit.i

strbuf_setlen.exit.i:                             ; preds = %9, %5
  %10 = load i64, ptr %0, align 8, !tbaa !15
  %.not15.i = icmp eq i64 %10, 0
  br i1 %.not15.i, label %11, label %12

11:                                               ; preds = %strbuf_setlen.exit.i
  store ptr null, ptr %7, align 8, !tbaa !12
  br label %12

12:                                               ; preds = %11, %strbuf_setlen.exit.i
  %13 = tail call ptr @__errno_location() #27
  store i32 0, ptr %13, align 4, !tbaa !33
  %14 = tail call i64 @getdelim(ptr noundef nonnull %7, ptr noundef nonnull %0, i32 noundef %2, ptr noundef %1) #25
  %15 = icmp sgt i64 %14, 0
  br i1 %15, label %25, label %16

16:                                               ; preds = %12
  %17 = load i32, ptr %13, align 4, !tbaa !33
  %18 = icmp eq i32 %17, 12
  br i1 %18, label %19, label %20

19:                                               ; preds = %16
  tail call void (ptr, ...) @die(ptr noundef nonnull @.str.14) #24
  unreachable

20:                                               ; preds = %16
  %21 = load ptr, ptr %7, align 8, !tbaa !12
  %.not16.i = icmp eq ptr %21, null
  br i1 %.not16.i, label %22, label %23

22:                                               ; preds = %20
  tail call void @llvm.memcpy.p0.p0.i64(ptr noundef nonnull align 8 dereferenceable(24) %0, ptr noundef nonnull align 8 dereferenceable(24) @__const.strbuf_addftime.munged_fmt, i64 24, i1 false)
  br label %strbuf_setlen.exit17

23:                                               ; preds = %20
  store i64 0, ptr %6, align 8, !tbaa !16
  %.not9.i18.i = icmp eq ptr %21, @strbuf_slopbuf
  br i1 %.not9.i18.i, label %strbuf_setlen.exit17, label %24

24:                                               ; preds = %23
  store i8 0, ptr %21, align 1, !tbaa !4
  br label %strbuf_setlen.exit17

25:                                               ; preds = %12
  store i64 %14, ptr %6, align 8, !tbaa !16
  %26 = icmp eq i32 %2, 10
  br i1 %26, label %27, label %strbuf_setlen.exit17

27:                                               ; preds = %25
  %28 = load ptr, ptr %7, align 8, !tbaa !12
  %29 = add nsw i64 %14, -1
  %30 = getelementptr inbounds nuw i8, ptr %28, i64 %29
  %31 = load i8, ptr %30, align 1, !tbaa !4
  %32 = icmp eq i8 %31, 10
  br i1 %32, label %33, label %strbuf_setlen.exit17

33:                                               ; preds = %27
  %34 = load i64, ptr %0, align 8, !tbaa !15
  %spec.select.i = tail call i64 @llvm.usub.sat.i64(i64 %34, i64 1)
  %35 = icmp ugt i64 %29, %spec.select.i
  br i1 %35, label %36, label %37

36:                                               ; preds = %33
  tail call void (ptr, i32, ptr, ...) @BUG_fl(ptr noundef nonnull @.str.28, i32 noundef 167, ptr noundef nonnull @.str.29) #24
  unreachable

37:                                               ; preds = %33
  store i64 %29, ptr %6, align 8, !tbaa !16
  %.not9.i = icmp eq ptr %28, @strbuf_slopbuf
  br i1 %.not9.i, label %strbuf_setlen.exit, label %38

38:                                               ; preds = %37
  store i8 0, ptr %30, align 1, !tbaa !4
  %.pr = load i64, ptr %6, align 8, !tbaa !16
  br label %strbuf_setlen.exit

strbuf_setlen.exit:                               ; preds = %37, %38
  %39 = phi i64 [ %29, %37 ], [ %.pr, %38 ]
  %.not14 = icmp eq i64 %39, 0
  br i1 %.not14, label %strbuf_setlen.exit17, label %40

40:                                               ; preds = %strbuf_setlen.exit
  %41 = load ptr, ptr %7, align 8, !tbaa !12
  %42 = add i64 %39, -1
  %43 = getelementptr inbounds nuw i8, ptr %41, i64 %42
  %44 = load i8, ptr %43, align 1, !tbaa !4
  %45 = icmp eq i8 %44, 13
  br i1 %45, label %46, label %strbuf_setlen.exit17

46:                                               ; preds = %40
  %47 = load i64, ptr %0, align 8, !tbaa !15
  %spec.select.i15 = tail call i64 @llvm.usub.sat.i64(i64 %47, i64 1)
  %48 = icmp ugt i64 %42, %spec.select.i15
  br i1 %48, label %49, label %50

49:                                               ; preds = %46
  tail call void (ptr, i32, ptr, ...) @BUG_fl(ptr noundef nonnull @.str.28, i32 noundef 167, ptr noundef nonnull @.str.29) #24
  unreachable

50:                                               ; preds = %46
  store i64 %42, ptr %6, align 8, !tbaa !16
  %.not9.i16 = icmp eq ptr %41, @strbuf_slopbuf
  br i1 %.not9.i16, label %strbuf_setlen.exit17, label %51

51:                                               ; preds = %50
  store i8 0, ptr %43, align 1, !tbaa !4
  br label %strbuf_setlen.exit17

strbuf_setlen.exit17:                             ; preds = %24, %23, %22, %3, %51, %50, %25, %27, %40, %strbuf_setlen.exit
  %.0 = phi i32 [ 0, %strbuf_setlen.exit ], [ 0, %40 ], [ 0, %27 ], [ 0, %25 ], [ 0, %50 ], [ 0, %51 ], [ -1, %3 ], [ -1, %22 ], [ -1, %23 ], [ -1, %24 ]
  ret i32 %.0
}